; Function Attrs: mustprogress uwtable
define void @_ZN18DisplayFilterCombo11onActivatedEi(ptr noundef nonnull align 8 dereferenceable(40) %0, i32 noundef %1) #0 align 2 personality ptr @__gxx_personality_v0 {
  %3 = alloca %class.QModelIndex, align 8
  %4 = alloca %class.QModelIndex, align 8
  %5 = alloca %class.QVariant, align 8
  %6 = tail call noundef ptr @_ZNK9QComboBox5modelEv(ptr noundef nonnull align 8 dereferenceable(40) %0)
  %7 = tail call noundef ptr @_ZNK11QMetaObject4castEPK7QObject(ptr noundef nonnull align 8 dereferenceable(56) @_ZN18QStandardItemModel16staticMetaObjectE, ptr noundef %6)
  store i32 -1, ptr %4, align 8
  %8 = getelementptr inbounds i8, ptr %4, i64 4
  store i32 -1, ptr %8, align 4
  %9 = getelementptr inbounds i8, ptr %4, i64 8
  call void @llvm.memset.p0.i64(ptr noundef nonnull align 8 dereferenceable(16) %9, i8 0, i64 16, i1 false)
  %10 = load ptr, ptr %7, align 8
  %11 = getelementptr inbounds i8, ptr %10, i64 96
  %12 = load ptr, ptr %11, align 8
  call void %12(ptr dead_on_unwind nonnull writable sret(%class.QModelIndex) align 8 %3, ptr noundef nonnull align 8 dereferenceable(16) %7, i32 noundef %1, i32 noundef 0, ptr noundef nonnull align 8 dereferenceable(24) %4)
  %13 = call noundef i64 @_ZN9QDateTime22currentMSecsSinceEpochEv() #11
  call void @_ZN8QVariantC1Ex(ptr noundef nonnull align 8 dereferenceable(32) %5, i64 noundef %13)
  %14 = load ptr, ptr %7, align 8
  %15 = getelementptr inbounds i8, ptr %14, i64 152
  %16 = load ptr, ptr %15, align 8
  %17 = invoke noundef zeroext i1 %16(ptr noundef nonnull align 8 dereferenceable(16) %7, ptr noundef nonnull align 8 dereferenceable(24) %3, ptr noundef nonnull align 8 dereferenceable(32) %5, i32 noundef 256)
          to label %18 unwind label %22

18:                                               ; preds = %2
  call void @_ZN8QVariantD1Ev(ptr noundef nonnull align 8 dereferenceable(32) %5) #11
  %19 = load ptr, ptr %7, align 8
  %20 = getelementptr inbounds i8, ptr %19, i64 320
  %21 = load ptr, ptr %20, align 8
  call void %21(ptr noundef nonnull align 8 dereferenceable(16) %7, i32 noundef 0, i32 noundef 1)
  ret void

22:                                               ; preds = %2
  %23 = landingpad { ptr, i32 }
          cleanup
  call void @_ZN8QVariantD1Ev(ptr noundef nonnull align 8 dereferenceable(32) %5) #11
  resume { ptr, i32 } %23
}